; Function Attrs: mustprogress noreturn uwtable
define dso_local void @_ZN5vcpkg6Checks18exit_maybe_upgradeERKNS_8LineInfoENS_10StringViewE(ptr noundef nonnull align 8 dereferenceable(16) %0, ptr %1, i64 %2) local_unnamed_addr #1 personality ptr @__gxx_personality_v0 {
  %4 = alloca %"struct.vcpkg::LocalizedString", align 8
  call void @llvm.lifetime.start.p0(i64 32, ptr nonnull %4) #20
  call void @_ZN5vcpkg15LocalizedString8from_rawENS_10StringViewE(ptr dead_on_unwind nonnull writable sret(%"struct.vcpkg::LocalizedString") align 8 %4, ptr %1, i64 %2)
  %5 = invoke noundef nonnull align 8 dereferenceable(32) ptr @_ZNO5vcpkg15LocalizedString10append_rawEc(ptr noundef nonnull align 8 dereferenceable(32) %4, i8 noundef signext 10)
          to label %6 unwind label %13

6:                                                ; preds = %3
  %.sroa.0.0.copyload = load i64, ptr @_ZN5vcpkg20msgChecksUpdateVcpkgE, align 8, !tbaa !30
  invoke void @_ZN5vcpkg3msg9format_toIJEJEEEvRNS_15LocalizedStringENS0_8MessageTIJDpT_EEEDpNS0_6TagArgINS_8identityIS5_E4typeET0_EE(ptr noundef nonnull align 8 dereferenceable(32) %5, i64 %.sroa.0.0.copyload)
          to label %_ZNO5vcpkg15LocalizedString6appendIJEJEEEOS0_NS_3msg8MessageTIJDpT_EEEDpNS3_6TagArgINS_8identityIS5_E4typeET0_EE.exit unwind label %13

_ZNO5vcpkg15LocalizedString6appendIJEJEEEOS0_NS_3msg8MessageTIJDpT_EEEDpNS3_6TagArgINS_8identityIS5_E4typeET0_EE.exit: ; preds = %6
  %7 = invoke noundef nonnull align 8 dereferenceable(32) ptr @_ZNO5vcpkg15LocalizedString10append_rawEc(ptr noundef nonnull align 8 dereferenceable(32) %5, i8 noundef signext 10)
          to label %8 unwind label %13

8:                                                ; preds = %_ZNO5vcpkg15LocalizedString6appendIJEJEEEOS0_NS_3msg8MessageTIJDpT_EEEDpNS3_6TagArgINS_8identityIS5_E4typeET0_EE.exit
  %9 = call { ptr, i64 } @_ZNK5vcpkg15LocalizedStringcvNS_10StringViewEEv(ptr noundef nonnull align 8 dereferenceable(32) %7) #20
  %10 = extractvalue { ptr, i64 } %9, 0
  %11 = extractvalue { ptr, i64 } %9, 1
  invoke void @_ZN5vcpkg3msg32write_unlocalized_text_to_stderrENS_5ColorENS_10StringViewE(i8 noundef signext 49, ptr %10, i64 %11)
          to label %12 unwind label %13

12:                                               ; preds = %8
  call void @_ZN5vcpkg15LocalizedStringD2Ev(ptr noundef nonnull align 8 dereferenceable(32) %4) #20
  call void @llvm.lifetime.end.p0(i64 32, ptr nonnull %4) #20
  call void @_ZN5vcpkg6Checks9exit_failERKNS_8LineInfoE(ptr noundef nonnull align 8 dereferenceable(16) %0) #23
  unreachable

13:                                               ; preds = %6, %8, %_ZNO5vcpkg15LocalizedString6appendIJEJEEEOS0_NS_3msg8MessageTIJDpT_EEEDpNS3_6TagArgINS_8identityIS5_E4typeET0_EE.exit, %3
  %14 = landingpad { ptr, i32 }
          cleanup
  %15 = load ptr, ptr %4, align 8, !tbaa !24
  %16 = getelementptr inbounds nuw i8, ptr %4, i64 16
  %17 = icmp eq ptr %15, %16
  br i1 %17, label %_ZNKSt7__cxx1112basic_stringIcSt11char_traitsIcESaIcEE11_M_is_localEv.exit.thread.i.i.i, label %_ZNKSt7__cxx1112basic_stringIcSt11char_traitsIcESaIcEE11_M_is_localEv.exit.i.i.i

_ZNKSt7__cxx1112basic_stringIcSt11char_traitsIcESaIcEE11_M_is_localEv.exit.thread.i.i.i: ; preds = %13
  %18 = getelementptr inbounds nuw i8, ptr %4, i64 8
  %19 = load i64, ptr %18, align 8, !tbaa !28
  %20 = icmp ult i64 %19, 16
  call void @llvm.assume(i1 %20)
  br label %_ZN5vcpkg15LocalizedStringD2Ev.exit

_ZNKSt7__cxx1112basic_stringIcSt11char_traitsIcESaIcEE11_M_is_localEv.exit.i.i.i: ; preds = %13
  %21 = load i64, ptr %16, align 8, !tbaa !29
  %22 = add i64 %21, 1
  call void @_ZdlPvm(ptr noundef %15, i64 noundef %22) #22
  br label %_ZN5vcpkg15LocalizedStringD2Ev.exit

_ZN5vcpkg15LocalizedStringD2Ev.exit:              ; preds = %_ZNKSt7__cxx1112basic_stringIcSt11char_traitsIcESaIcEE11_M_is_localEv.exit.thread.i.i.i, %_ZNKSt7__cxx1112basic_stringIcSt11char_traitsIcESaIcEE11_M_is_localEv.exit.i.i.i
  call void @llvm.lifetime.end.p0(i64 32, ptr nonnull %4) #20
  resume { ptr, i32 } %14
}